Certificate:
    Data:
        Version: 3 (0x2)
        Serial Number: 1 (0x1)
    Signature Algorithm: sha256WithRSAEncryption
        Issuer: C=ID, ST=DKI-JAKARTA, L=JAKARTA-PUSAT, O=OPEN-VPN, OU=PUSDATIN, CN=OPEN-VPN CA/name=server-openvpn/emailAddress=prasti@bappenas.go.id
        Validity
            Not Before: Feb 16 08:11:56 2017 GMT
            Not After : Feb 14 08:11:56 2027 GMT
        Subject: C=ID, ST=DKI-JAKARTA, L=JAKARTA-PUSAT, O=OPEN-VPN, OU=PUSDATIN, CN=server-openvpn/name=server-openvpn/emailAddress=prasti@bappenas.go.id
        Subject Public Key Info:
            Public Key Algorithm: rsaEncryption
                Public-Key: (2048 bit)
                Modulus:
                    00:d2:ab:07:08:d2:f6:d2:6a:ab:44:96:5a:c3:ca:
                    d6:ff:3a:e0:99:ff:48:5b:4b:0d:e7:8d:50:89:4a:
                    8f:6f:2a:de:3b:7a:da:8d:54:15:38:35:60:f4:41:
                    a6:e0:0d:bf:f2:e4:d9:26:76:b7:a1:78:17:59:f3:
                    ee:7e:3a:21:6c:5f:2b:58:a2:ca:1a:ab:e9:e5:56:
                    3d:8f:88:78:47:4b:c2:81:0d:72:0a:7c:80:b4:91:
                    ef:59:fa:dc:0f:3c:67:70:6b:b0:48:c6:96:8f:ec:
                    3d:56:f9:60:65:10:5c:7a:46:30:d9:44:d7:01:7d:
                    84:a4:94:be:00:fc:c5:6f:46:e8:cb:27:67:89:87:
                    3b:fa:55:22:b0:f1:f0:2d:c4:8f:37:cd:0b:86:6c:
                    9a:09:ac:1c:83:74:0f:8f:b1:42:cf:77:a4:d8:66:
                    6a:b5:3f:6f:b8:1b:b4:d1:4c:24:66:e4:ad:b2:19:
                    19:d1:b5:0e:0c:94:f7:77:55:7b:ef:d4:7a:5d:a7:
                    23:27:88:89:c0:d7:e1:fc:61:b9:9c:ca:5b:17:06:
                    b6:dd:41:22:3e:ed:a1:21:04:ae:6e:40:f7:20:2e:
                    08:b9:ac:bf:31:71:95:5e:35:61:c9:69:79:62:2c:
                    24:a3:e0:b4:94:77:7f:a2:99:4a:49:6e:55:9a:4e:
                    56:05
                Exponent: 65537 (0x10001)
        X509v3 extensions:
            X509v3 Basic Constraints: 
                CA:FALSE
            Netscape Cert Type: 
                SSL Server
            Netscape Comment: 
                Easy-RSA Generated Server Certificate
            X509v3 Subject Key Identifier: 
                76:0D:B6:91:E3:62:69:43:27:54:2D:F5:BA:4E:D8:D1:CA:0A:F9:59
            X509v3 Authority Key Identifier: 
                keyid:69:1D:75:EC:82:26:08:16:B0:EA:73:BB:68:33:72:38:57:70:32:94
                DirName:/C=ID/ST=DKI-JAKARTA/L=JAKARTA-PUSAT/O=OPEN-VPN/OU=PUSDATIN/CN=OPEN-VPN CA/name=server-openvpn/emailAddress=prasti@bappenas.go.id
                serial:E8:4C:95:E4:2F:80:5D:1F

            X509v3 Extended Key Usage: 
                TLS Web Server Authentication
            X509v3 Key Usage: 
                Digital Signature, Key Encipherment
            X509v3 Subject Alternative Name: 
                DNS:server-openvpn
    Signature Algorithm: sha256WithRSAEncryption
         5f:d0:5c:d3:c0:28:f7:0f:c8:f3:7b:0a:06:3e:cc:a1:fb:95:
         ed:3c:76:2a:62:6c:0c:bf:5b:a6:5b:0b:f7:01:41:86:66:2b:
         c7:31:c0:91:3c:57:c4:b2:15:93:e0:66:6d:1c:a3:2f:29:15:
         6f:bc:fe:36:06:4b:43:a8:95:bb:30:0c:e8:0f:88:a3:45:5f:
         0a:2b:b2:90:9c:e9:1b:69:5d:a7:a6:be:3d:a3:dd:43:e8:8a:
         b1:98:25:35:12:60:ef:e6:f2:de:bb:e9:89:03:ef:29:2c:68:
         96:48:8e:70:9c:40:0d:95:f9:07:60:59:81:62:c5:1d:03:c4:
         0f:95:21:25:74:96:81:a1:8f:58:06:95:e5:a7:12:e1:3e:23:
         8f:0a:19:d6:90:a1:5a:7b:da:7b:47:a4:8a:49:72:6d:13:e3:
         b0:6d:25:cb:e7:4e:74:99:51:49:01:ba:de:ce:c0:d2:b6:e4:
         c6:04:4f:5d:49:49:22:3c:08:00:f2:22:3c:4a:ef:28:bc:98:
         4e:87:33:68:38:35:8c:28:d2:ff:d3:bb:b8:7a:21:f3:98:40:
         d9:35:4c:9c:ce:e6:ad:ef:28:9e:da:9a:92:11:35:03:2f:16:
         06:81:a2:4d:82:24:27:44:35:bd:27:3c:d8:7c:78:2b:7e:39:
         1f:ea:95:0a
-----BEGIN CERTIFICATE-----
MIIFkDCCBHigAwIBAgIBATANBgkqhkiG9w0BAQsFADCBtjELMAkGA1UEBhMCSUQx
FDASBgNVBAgTC0RLSS1KQUtBUlRBMRYwFAYDVQQHEw1KQUtBUlRBLVBVU0FUMREw
DwYDVQQKEwhPUEVOLVZQTjERMA8GA1UECxMIUFVTREFUSU4xFDASBgNVBAMTC09Q
RU4tVlBOIENBMRcwFQYDVQQpEw5zZXJ2ZXItb3BlbnZwbjEkMCIGCSqGSIb3DQEJ
ARYVcHJhc3RpQGJhcHBlbmFzLmdvLmlkMB4XDTE3MDIxNjA4MTE1NloXDTI3MDIx
NDA4MTE1NlowgbkxCzAJBgNVBAYTAklEMRQwEgYDVQQIEwtES0ktSkFLQVJUQTEW
MBQGA1UEBxMNSkFLQVJUQS1QVVNBVDERMA8GA1UEChMIT1BFTi1WUE4xETAPBgNV
BAsTCFBVU0RBVElOMRcwFQYDVQQDEw5zZXJ2ZXItb3BlbnZwbjEXMBUGA1UEKRMO
c2VydmVyLW9wZW52cG4xJDAiBgkqhkiG9w0BCQEWFXByYXN0aUBiYXBwZW5hcy5n
by5pZDCCASIwDQYJKoZIhvcNAQEBBQADggEPADCCAQoCggEBANKrBwjS9tJqq0SW
WsPK1v864Jn/SFtLDeeNUIlKj28q3jt62o1UFTg1YPRBpuANv/Lk2SZ2t6F4F1nz
7n46IWxfK1iiyhqr6eVWPY+IeEdLwoENcgp8gLSR71n63A88Z3BrsEjGlo/sPVb5
YGUQXHpGMNlE1wF9hKSUvgD8xW9G6MsnZ4mHO/pVIrDx8C3EjzfNC4ZsmgmsHIN0
D4+xQs93pNhmarU/b7gbtNFMJGbkrbIZGdG1DgyU93dVe+/Uel2nIyeIicDX4fxh
uZzKWxcGtt1BIj7toSEErm5A9yAuCLmsvzFxlV41YclpeWIsJKPgtJR3f6KZSklu
VZpOVgUCAwEAAaOCAaIwggGeMAkGA1UdEwQCMAAwEQYJYIZIAYb4QgEBBAQDAgZA
MDQGCWCGSAGG+EIBDQQnFiVFYXN5LVJTQSBHZW5lcmF0ZWQgU2VydmVyIENlcnRp
ZmljYXRlMB0GA1UdDgQWBBR2DbaR42JpQydULfW6TtjRygr5WTCB6wYDVR0jBIHj
MIHggBRpHXXsgiYIFrDqc7toM3I4V3AylKGBvKSBuTCBtjELMAkGA1UEBhMCSUQx
FDASBgNVBAgTC0RLSS1KQUtBUlRBMRYwFAYDVQQHEw1KQUtBUlRBLVBVU0FUMREw
DwYDVQQKEwhPUEVOLVZQTjERMA8GA1UECxMIUFVTREFUSU4xFDASBgNVBAMTC09Q
RU4tVlBOIENBMRcwFQYDVQQpEw5zZXJ2ZXItb3BlbnZwbjEkMCIGCSqGSIb3DQEJ
ARYVcHJhc3RpQGJhcHBlbmFzLmdvLmlkggkA6EyV5C+AXR8wEwYDVR0lBAwwCgYI
KwYBBQUHAwEwCwYDVR0PBAQDAgWgMBkGA1UdEQQSMBCCDnNlcnZlci1vcGVudnBu
MA0GCSqGSIb3DQEBCwUAA4IBAQBf0FzTwCj3D8jzewoGPsyh+5XtPHYqYmwMv1um
Wwv3AUGGZivHMcCRPFfEshWT4GZtHKMvKRVvvP42BktDqJW7MAzoD4ijRV8KK7KQ
nOkbaV2npr49o91D6IqxmCU1EmDv5vLeu+mJA+8pLGiWSI5wnEANlfkHYFmBYsUd
A8QPlSEldJaBoY9YBpXlpxLhPiOPChnWkKFae9p7R6SKSXJtE+OwbSXL5050mVFJ
AbrezsDStuTGBE9dSUkiPAgA8iI8Su8ovJhOhzNoODWMKNL/07u4eiHzmEDZNUyc
zuat7yie2pqSETUDLxYGgaJNgiQnRDW9JzzYfHgrfjkf6pUK
-----END CERTIFICATE-----
